target datalayout = "e-m:e-p270:32:32-p271:32:32-p272:64:64-i64:64-i128:128-f80:128-n8:16:32:64-S128"
target triple = "x86_64-pc-linux-gnu"

@hf_r3_commandmfglength = internal global i32 0, align 4
@hf_r3_commandmfg = internal global i32 0, align 4

; Function Attrs: null_pointer_is_valid sspstrong uwtable
define internal void @dissect_r3_cmdmfg_timerchain(ptr noundef %0, i32 noundef %1, i32 noundef %2, ptr noundef %3, ptr noundef %4) #0 {
  %6 = alloca ptr, align 8
  %7 = alloca i32, align 4
  %8 = alloca i32, align 4
  %9 = alloca ptr, align 8
  %10 = alloca ptr, align 8
  store ptr %0, ptr %6, align 8
  store i32 %1, ptr %7, align 4
  store i32 %2, ptr %8, align 4
  store ptr %3, ptr %9, align 8
  store ptr %4, ptr %10, align 8
  %11 = load ptr, ptr %10, align 8
  %12 = icmp ne ptr %11, null
  br i1 %12, label %13, label %26

13:                                               ; preds = %5
  %14 = load ptr, ptr %10, align 8
  %15 = load i32, ptr @hf_r3_commandmfglength, align 4
  %16 = load ptr, ptr %6, align 8
  %17 = load i32, ptr %7, align 4
  %18 = add i32 %17, 0
  %19 = call ptr @proto_tree_add_item(ptr noundef %14, i32 noundef %15, ptr noundef %16, i32 noundef %18, i32 noundef 1, i32 noundef -2147483648)
  %20 = load ptr, ptr %10, align 8
  %21 = load i32, ptr @hf_r3_commandmfg, align 4
  %22 = load ptr, ptr %6, align 8
  %23 = load i32, ptr %7, align 4
  %24 = add i32 %23, 1
  %25 = call ptr @proto_tree_add_item(ptr noundef %20, i32 noundef %21, ptr noundef %22, i32 noundef %24, i32 noundef 1, i32 noundef -2147483648)
  br label %26

26:                                               ; preds = %13, %5
  ret void
}